; Function Attrs: mustprogress uwtable
define void @_ZN17grpc_event_engine12experimental23PosixEngineListenerImpl23AsyncConnectionAcceptor5StartEv(ptr nocapture noundef nonnull align 8 dereferenceable(209) %this) local_unnamed_addr #3 align 2 {
entry:
  %0 = atomicrmw add ptr %this, i32 1 monotonic, align 4
  %handle_ = getelementptr inbounds i8, ptr %this, i64 192
  %1 = load ptr, ptr %handle_, align 8
  %notify_on_accept_ = getelementptr inbounds i8, ptr %this, i64 200
  %2 = load ptr, ptr %notify_on_accept_, align 8
  %vtable = load ptr, ptr %1, align 8
  %vfn = getelementptr inbounds i8, ptr %vtable, i64 24
  %3 = load ptr, ptr %vfn, align 8
  tail call void %3(ptr noundef nonnull align 8 dereferenceable(8) %1, ptr noundef %2)
  ret void
}